MPASM 5.81  /HOME/CICERO/DRIVE/DOCUMENTS/COD   1-18-2019  18:26:13         PAGE  1


LOC  OBJECT CODE     LINE SOURCE TEXT
  VALUE

                      00001     LIST p=18f4520
                      00002 #include <p18f4520.inc>
                      00001         LIST
                      00002 
                      00003 ;==========================================================================
                      00004 ; Build date : Jul 23 2018
                      00005 ;  MPASM PIC18F4520 processor include
                      00006 ; 
                      00007 ;  (c) Copyright 1999-2018 Microchip Technology, All rights reserved
                      00008 ;==========================================================================
                      00009 
                      01489         LIST
                      00003        
                      00004     CONFIG  OSC = HS         ; Oscillator Selection bits (Internal oscillator block, port function on RA
                            6 and RA7)
                      00005     CONFIG  PWRT = OFF            ; Power-up Timer Enable bit (PWRT disabled)
                      00006     CONFIG  WDT = OFF             ; Watchdog Timer Enable bit (WDT disabled (control is placed on the SW
                            DTEN bit))
                      00007     CONFIG  LVP = OFF             ; Single-Supply ICSP Enable bit (Single-Supply ICSP disabled)
                      00008     CONFIG  PBADEN = OFF          ; PORTB A/D Enable bit (PORTB<4:0> pins are configured as digital I/O 
                            on Reset)
                      00009 
                      00010     
  00000F8A            00011 PIN_SYNC_REG equ LATB
  00000F93            00012 PIN_SYNC_TRIS equ TRISB
                      00013  
  00000000            00014 PIN_HSYNC_BIT equ 0
  00000001            00015 PIN_VSYNC_BIT equ 1
                      00016 
  00000F8C            00017 PIN_SIG_REG equ LATD
  00000F95            00018 PIN_SIG_TRIS equ TRISD
                      00019 
  00000000            00020 PIN_RED_BIT equ 0
  00000001            00021 PIN_GREEN_BIT equ 1
  00000002            00022 PIN_BLUE_BIT equ 2
                      00023 
  00000006            00024 ARRAY_SIZE equ 6
                      00025 
  000000FF            00026 ENUM_TYPE equ 0xff
  000000FE            00027 ENUM_X equ 0xfe
  000000FD            00028 ENUM_Y equ 0xfd
  000000F0            00029 ENUM_LIMIT equ 0xf0
                      00030  
  000000F0            00031 DATA_TYPE equ 0xf0
  000000E0            00032 DATA_X equ 0xe0
  000000D0            00033 DATA_Y equ 0xd0
                      00034 
  00000040            00035 ptr_recv equ 0x40
  00000041            00036 immedI equ 0x41
  00000042            00037 immedJ equ 0x42
  00000043            00038 immedK equ 0x43
  00000044            00039 space1 equ 0x44
  00000045            00040 print1 equ 0x45
MPASM 5.81  /HOME/CICERO/DRIVE/DOCUMENTS/COD   1-18-2019  18:26:13         PAGE  2


LOC  OBJECT CODE     LINE SOURCE TEXT
  VALUE

  00000046            00041 space2 equ 0x46
  00000047            00042 print2 equ 0x47
  00000048            00043 space3 equ 0x48
  00000049            00044 line_count equ 0x49
  00000050            00045 ten equ 0x50
                      00046  
                      00047 delay MACRO time;//3*time
                      00048     local lloop1
                      00049     movlw time
                      00050 lloop1:
                      00051     decfsz WREG
                      00052     bra lloop1
                      00053  ENDM
                      00054 
                      00055 delayf MACRO reg;//3+3*time
                      00056     local lloop2
                      00057     incf reg
                      00058 lloop2:
                      00059     decfsz reg
                      00060     bra lloop2
                      00061  ENDM
                      00062 
                      00063 init_compare MACRO
                      00064     clrf print1;1
                      00065     clrf space1;2
                      00066     clrf print2;3
                      00067     clrf space2;4
                      00068     clrf space3;5
                      00069     movlw ARRAY_SIZE;6
                      00070     movwf immedJ;7
                      00071     lfsr 0,DATA_TYPE;8~9
                      00072     lfsr 1,DATA_X;10~11
                      00073     lfsr 2,DATA_Y;12~13
                      00074  ENDM
                      00075  
                      00076 compare MACRO
                      00077     local lloop3
                      00078     local lelse1
                      00079     local lendif1
                      00080     local lelse2
                      00081     local lendif2
                      00082 lloop3:
                      00083     movf line_count,0;1
                      00084     subwf POSTINC2,0;2
                      00085     cpfsgt ten;3
                      00086         bra lelse1;4~5
                      00087     movf POSTINC0,0;5
                      00088     mullw 0x14;6
                      00089     addlw 0x0a;7
                      00090     tstfsz print1;8
                      00091         bra lelse2;9~10
                      00092     movwf print1;10
                      00093     movff POSTINC1,space1;11~12
MPASM 5.81  /HOME/CICERO/DRIVE/DOCUMENTS/COD   1-18-2019  18:26:13         PAGE  3


LOC  OBJECT CODE     LINE SOURCE TEXT
  VALUE

                      00094     delay d'1';13~15
                      00095     bra lendif2;16~17
                      00096 lelse2:
                      00097     movwf print2;11
                      00098     movff POSTINC1,space2;12~13
                      00099     movf space1,0;14
                      00100     addwf print1,0;15
                      00101     cpfslt space2;16
                      00102         subwf space2;17
                      00103 lendif2:
                      00104     bra lendif1;18~19
                      00105 lelse1:
                      00106     nop;6
                      00107     delay d'4';7~18
                      00108     nop;19
                      00109 lendif1:
                      00110     decfsz immedJ;20;42;64;86;108;130
                      00111     bra lloop3;21~22
                      00112     movf space1,0;132
                      00113     addwf print1,0;133
                      00114     addwf space2,0;134
                      00115     addwf print2,0;135
                      00116     sublw d'113';136
                      00117     movwf space3;137
                      00118  ENDM
                      00119  
                      00120  org 0x00
000000 EF?? F???      00121     goto Initial
                      00122  org 0x08
                      00123     
000008                00124 lo_isr:
                      00125  org 0x18
000018 BA9E           00126     btfsc PIR1,RCIF;1
00001A D???           00127         bra UART;2~3
00001C 0010           00128     retfie
00001E                00129 UART:
00001E A2AB           00130     btfss RCSTA,OERR;4
000020 D???           00131         bra UART_wait;5~6
000022 98AB           00132     bcf RCSTA,4;6
000024 0000           00133     nop;7
000026 0000           00134     nop;8
000028 88AB           00135     bsf RCSTA,4;9
00002A D???           00136     bra UART_read;10~11
00002C                00137 UART_wait:
                      00138     delay d'2';7~11
  0000                    M     local lloop1
00002C 0E02               M     movlw d'2'
00002E                    M lloop1:
00002E 2EE8               M     decfsz WREG
000030 D???               M     bra lloop1
000032                00139 UART_read:
000032 0EF0           00140     movlw ENUM_LIMIT;12
000034 60AE           00141     cpfslt RCREG;13
MPASM 5.81  /HOME/CICERO/DRIVE/DOCUMENTS/COD   1-18-2019  18:26:13         PAGE  4


LOC  OBJECT CODE     LINE SOURCE TEXT
  VALUE

000036 D???           00142         bra UART_datatype;14~15
000038 50AE           00143     movf RCREG,0;16
00003A EE00 F040      00144     lfsr 0,ptr_recv;17~18
00003E 52EF           00145     movf INDF0;19
000040 2A40           00146     incf ptr_recv;20
000042 0010           00147     retfie
000044                00148 UART_datatype:
000044 5CAE           00149     subwf RCREG,0;16
000046 0D10           00150     mullw 0x10;17
000048 6E40           00151     movwf ptr_recv;19
00004A 0000           00152     nop;20
00004C 0010           00153     retfie
                      00154     
00004E                00155 Initial:
                      00156     ;//bsf OSCTUNE,6
00004E 8AD3           00157     bsf OSCCON, IRCF1
000050 8CD3           00158     bsf OSCCON, IRCF2
000052 88D3           00159     bsf OSCCON, IRCF0
                      00160     
000054 8EB1           00161     bsf T3CON, RD16
000056 9CB1           00162     bcf T3CON, T3CCP2
000058 86B1           00163     bsf T3CON, T3CCP1
00005A 9AB1           00164     bcf T3CON, T3CKPS1
00005C 98B1           00165     bcf T3CON, T3CKPS0
00005E 90B1           00166     bcf T3CON, TMR3ON ; disabled
                      00167     
000060 82A0           00168     bsf PIE2, TMR3IE
000062 92A1           00169     bcf PIR2, TMR3IF
000064 82A2           00170     bsf IPR2, TMR3IP
000066 8ED0           00171     bsf RCON,IPEN
000068 8EF2           00172     bsf INTCON, GIE
00006A 8CF2           00173     bsf INTCON, PEIE
                      00174     
                      00175     ;UART
00006C 8C94           00176     bsf TRISC,6
00006E 8E94           00177     bsf TRISC,7
000070 98AC           00178     bcf TXSTA,SYNC
000072 86B8           00179     bsf BAUDCON,BRG16
000074 84AC           00180     bsf TXSTA,BRGH
                      00181     
000076 0E00           00182     movlw 0x00
000078 6EB0           00183     movwf SPBRGH
00007A 0E13           00184     movlw 0x13
00007C 6EAF           00185     movwf SPBRG
                      00186     
                      00187     ;Serial enable
00007E 8EAB           00188     bsf RCSTA,SPEN
000080 889E           00189     bsf PIR1,TXIF
000082 9A9E           00190     bcf PIR1,RCIF
000084 8AAC           00191     bsf TXSTA,TXEN
000086 88AB           00192     bsf RCSTA,CREN
                      00193     
000088 989D           00194     bcf PIE1,TXIE
MPASM 5.81  /HOME/CICERO/DRIVE/DOCUMENTS/COD   1-18-2019  18:26:13         PAGE  5


LOC  OBJECT CODE     LINE SOURCE TEXT
  VALUE

00008A 989F           00195     bcf IPR1,TXIP
00008C 8A9D           00196     bsf PIE1,RCIE
00008E 9A9F           00197     bcf IPR1,RCIP
                      00198     
                      00199     
000090 9093           00200     bcf PIN_SYNC_TRIS, PIN_HSYNC_BIT
000092 9293           00201     bcf PIN_SYNC_TRIS, PIN_VSYNC_BIT
000094 808A           00202     bsf PIN_SYNC_REG, PIN_HSYNC_BIT
000096 828A           00203     bsf PIN_SYNC_REG, PIN_VSYNC_BIT
                      00204     
000098 0E0A           00205     movlw d'10'
00009A EE00 F0F0      00206     lfsr 0,DATA_TYPE;8~9
00009E EE10 F0E0      00207     lfsr 1,DATA_X;10~11
0000A2 EE20 F0D0      00208     lfsr 2,DATA_Y;12~13
0000A6                00209 clear_loop:
0000A6 6AEE           00210     clrf POSTINC0
0000A8 6AE6           00211     clrf POSTINC1
0000AA 6ADE           00212     clrf POSTINC2
0000AC 2EE8           00213     decfsz WREG
0000AE D???           00214         bra clear_loop
                      00215     
0000B0 6A95           00216     clrf    PIN_SIG_TRIS
0000B2 6A8C           00217     clrf    PIN_SIG_REG
0000B4 0E0A           00218     movlw 0x0A
0000B6 6E50           00219     movwf ten
0000B8                00220 all:
0000B8 6A8A           00221     clrf    PIN_SYNC_REG;1
                      00222     delay   d'22';
  0000                    M     local lloop1
0000BA 0E16               M     movlw d'22'
0000BC                    M lloop1:
0000BC 2EE8               M     decfsz WREG
0000BE D???               M     bra lloop1
0000C0 808A           00223     bsf PIN_SYNC_REG, PIN_HSYNC_BIT;49
                      00224     delay   d'166';50~400
  0000                    M     local lloop1
0000C2 0EA6               M     movlw d'166'
0000C4                    M lloop1:
0000C4 2EE8               M     decfsz WREG
0000C6 D???               M     bra lloop1
0000C8 0E02           00225     movlw   d'2';401
                      00226     
0000CA 6E8A           00227     movwf   LATB;1
0000CC 0EAE           00228     movlw   d'174';2
0000CE 6E41           00229     movwf   immedI;3
0000D0 0000           00230     nop
                      00231     delay   d'21';4~48
  0000                    M     local lloop1
0000D2 0E15               M     movlw d'21'
0000D4                    M lloop1:
0000D4 2EE8               M     decfsz WREG
0000D6 D???               M     bra lloop1
0000D8 808A           00232     bsf PIN_SYNC_REG, PIN_HSYNC_BIT;49
MPASM 5.81  /HOME/CICERO/DRIVE/DOCUMENTS/COD   1-18-2019  18:26:13         PAGE  6


LOC  OBJECT CODE     LINE SOURCE TEXT
  VALUE

                      00233     delay   d'166';50~400
  0000                    M     local lloop1
0000DA 0EA6               M     movlw d'166'
0000DC                    M lloop1:
0000DC 2EE8               M     decfsz WREG
0000DE D???               M     bra lloop1
0000E0 0E02           00234     movlw   d'2';401
                      00235     
0000E2                00236 loop1:   
0000E2 908A           00237     bcf PIN_SYNC_REG, PIN_HSYNC_BIT;1
                      00238     init_compare;2~14
0000E4 6A45               M     clrf print1;1
0000E6 6A44               M     clrf space1;2
0000E8 6A47               M     clrf print2;3
0000EA 6A46               M     clrf space2;4
0000EC 6A48               M     clrf space3;5
0000EE 0E06               M     movlw ARRAY_SIZE;6
0000F0 6E42               M     movwf immedJ;7
0000F2 EE00 F0F0          M     lfsr 0,DATA_TYPE;8~9
0000F6 EE10 F0E0          M     lfsr 1,DATA_X;10~11
0000FA EE20 F0D0          M     lfsr 2,DATA_Y;12~13
0000FE 2A49           00239     incf line_count;15
000100 0000           00240     nop
                      00241     delay   d'17';16~48
  0000                    M     local lloop1
000102 0E11               M     movlw d'17'
000104                    M lloop1:
000104 2EE8               M     decfsz WREG
000106 D???               M     bra lloop1
000108 808A           00242     bsf PIN_SYNC_REG, PIN_HSYNC_BIT;49
                      00243     compare;50~186
  0000                    M     local lloop3
  0000                    M     local lelse1
  0000                    M     local lendif1
  0000                    M     local lelse2
  0000                    M     local lendif2
00010A                    M lloop3:
00010A 5049               M     movf line_count,0;1
00010C 5CDE               M     subwf POSTINC2,0;2
00010E 6450               M     cpfsgt ten;3
000110 D???               M         bra lelse1;4~5
000112 50EE               M     movf POSTINC0,0;5
000114 0D14               M     mullw 0x14;6
000116 0F0A               M     addlw 0x0a;7
000118 6645               M     tstfsz print1;8
00011A D???               M         bra lelse2;9~10
00011C 6E45               M     movwf print1;10
00011E CFE6 F044          M     movff POSTINC1,space1;11~12
                          M     delay d'1';13~15
  0000                    M     local lloop1
000122 0E01               M     movlw d'1'
000124                    M lloop1:
000124 2EE8               M     decfsz WREG
MPASM 5.81  /HOME/CICERO/DRIVE/DOCUMENTS/COD   1-18-2019  18:26:13         PAGE  7


LOC  OBJECT CODE     LINE SOURCE TEXT
  VALUE

000126 D???               M     bra lloop1
000128 D???               M     bra lendif2;16~17
00012A                    M lelse2:
00012A 6E47               M     movwf print2;11
00012C CFE6 F046          M     movff POSTINC1,space2;12~13
000130 5044               M     movf space1,0;14
000132 2445               M     addwf print1,0;15
000134 6046               M     cpfslt space2;16
000136 5E46               M         subwf space2;17
000138                    M lendif2:
000138 D???               M     bra lendif1;18~19
00013A                    M lelse1:
00013A 0000               M     nop;6
                          M     delay d'4';7~18
  0000                    M     local lloop1
00013C 0E04               M     movlw d'4'
00013E                    M lloop1:
00013E 2EE8               M     decfsz WREG
000140 D???               M     bra lloop1
000142 0000               M     nop;19
000144                    M lendif1:
000144 2E42               M     decfsz immedJ;20;42;64;86;108;130
000146 D???               M     bra lloop3;21~22
000148 5044               M     movf space1,0;132
00014A 2445               M     addwf print1,0;133
00014C 2446               M     addwf space2,0;134
00014E 2447               M     addwf print2,0;135
000150 0871               M     sublw d'113';136
000152 6E48               M     movwf space3;137
                      00244     delayf space1;
  0000                    M     local lloop2
000154 2A44               M     incf space1
000156                    M lloop2:
000156 2E44               M     decfsz space1
000158 D???               M     bra lloop2
00015A 808C           00245     bsf PIN_SIG_REG,PIN_RED_BIT;186
                      00246     delayf print1;
  0000                    M     local lloop2
00015C 2A45               M     incf print1
00015E                    M lloop2:
00015E 2E45               M     decfsz print1
000160 D???               M     bra lloop2
000162 908C           00247     bcf PIN_SIG_REG,PIN_RED_BIT;187
                      00248     delayf space2;
  0000                    M     local lloop2
000164 2A46               M     incf space2
000166                    M lloop2:
000166 2E46               M     decfsz space2
000168 D???               M     bra lloop2
00016A 808C           00249     bsf PIN_SIG_REG,PIN_RED_BIT;188
                      00250     delayf print2;
  0000                    M     local lloop2
00016C 2A47               M     incf print2
MPASM 5.81  /HOME/CICERO/DRIVE/DOCUMENTS/COD   1-18-2019  18:26:13         PAGE  8


LOC  OBJECT CODE     LINE SOURCE TEXT
  VALUE

00016E                    M lloop2:
00016E 2E47               M     decfsz print2
000170 D???               M     bra lloop2
000172 908C           00251     bcf PIN_SIG_REG,PIN_RED_BIT;189
                      00252     delayf space3;
  0000                    M     local lloop2
000174 2A48               M     incf space3
000176                    M lloop2:
000176 2E48               M     decfsz space3
000178 D???               M     bra lloop2
00017A 0000           00253     nop
                      00254     delay d'1';399~401
  0000                    M     local lloop1
00017C 0E01               M     movlw d'1'
00017E                    M lloop1:
00017E 2EE8               M     decfsz WREG
000180 D???               M     bra lloop1
                      00255     
000182 908A           00256     bcf PIN_SYNC_REG, PIN_HSYNC_BIT;1
                      00257     init_compare;2~14
000184 6A45               M     clrf print1;1
000186 6A44               M     clrf space1;2
000188 6A47               M     clrf print2;3
00018A 6A46               M     clrf space2;4
00018C 6A48               M     clrf space3;5
00018E 0E06               M     movlw ARRAY_SIZE;6
000190 6E42               M     movwf immedJ;7
000192 EE00 F0F0          M     lfsr 0,DATA_TYPE;8~9
000196 EE10 F0E0          M     lfsr 1,DATA_X;10~11
00019A EE20 F0D0          M     lfsr 2,DATA_Y;12~13
00019E 2A49           00258     incf line_count;15
0001A0 0000           00259     nop
                      00260     delay   d'17';16~48
  0000                    M     local lloop1
0001A2 0E11               M     movlw d'17'
0001A4                    M lloop1:
0001A4 2EE8               M     decfsz WREG
0001A6 D???               M     bra lloop1
0001A8 808A           00261     bsf PIN_SYNC_REG, PIN_HSYNC_BIT;49
                      00262     compare;50~185
  0000                    M     local lloop3
  0000                    M     local lelse1
  0000                    M     local lendif1
  0000                    M     local lelse2
  0000                    M     local lendif2
0001AA                    M lloop3:
0001AA 5049               M     movf line_count,0;1
0001AC 5CDE               M     subwf POSTINC2,0;2
0001AE 6450               M     cpfsgt ten;3
0001B0 D???               M         bra lelse1;4~5
0001B2 50EE               M     movf POSTINC0,0;5
0001B4 0D14               M     mullw 0x14;6
0001B6 0F0A               M     addlw 0x0a;7
MPASM 5.81  /HOME/CICERO/DRIVE/DOCUMENTS/COD   1-18-2019  18:26:13         PAGE  9


LOC  OBJECT CODE     LINE SOURCE TEXT
  VALUE

0001B8 6645               M     tstfsz print1;8
0001BA D???               M         bra lelse2;9~10
0001BC 6E45               M     movwf print1;10
0001BE CFE6 F044          M     movff POSTINC1,space1;11~12
                          M     delay d'1';13~15
  0000                    M     local lloop1
0001C2 0E01               M     movlw d'1'
0001C4                    M lloop1:
0001C4 2EE8               M     decfsz WREG
0001C6 D???               M     bra lloop1
0001C8 D???               M     bra lendif2;16~17
0001CA                    M lelse2:
0001CA 6E47               M     movwf print2;11
0001CC CFE6 F046          M     movff POSTINC1,space2;12~13
0001D0 5044               M     movf space1,0;14
0001D2 2445               M     addwf print1,0;15
0001D4 6046               M     cpfslt space2;16
0001D6 5E46               M         subwf space2;17
0001D8                    M lendif2:
0001D8 D???               M     bra lendif1;18~19
0001DA                    M lelse1:
0001DA 0000               M     nop;6
                          M     delay d'4';7~18
  0000                    M     local lloop1
0001DC 0E04               M     movlw d'4'
0001DE                    M lloop1:
0001DE 2EE8               M     decfsz WREG
0001E0 D???               M     bra lloop1
0001E2 0000               M     nop;19
0001E4                    M lendif1:
0001E4 2E42               M     decfsz immedJ;20;42;64;86;108;130
0001E6 D???               M     bra lloop3;21~22
0001E8 5044               M     movf space1,0;132
0001EA 2445               M     addwf print1,0;133
0001EC 2446               M     addwf space2,0;134
0001EE 2447               M     addwf print2,0;135
0001F0 0871               M     sublw d'113';136
0001F2 6E48               M     movwf space3;137
                      00263     delayf space1;
  0000                    M     local lloop2
0001F4 2A44               M     incf space1
0001F6                    M lloop2:
0001F6 2E44               M     decfsz space1
0001F8 D???               M     bra lloop2
0001FA 808C           00264     bsf PIN_SIG_REG,PIN_RED_BIT;186
                      00265     delayf print1;
  0000                    M     local lloop2
0001FC 2A45               M     incf print1
0001FE                    M lloop2:
0001FE 2E45               M     decfsz print1
000200 D???               M     bra lloop2
000202 908C           00266     bcf PIN_SIG_REG,PIN_RED_BIT;187
                      00267     delayf space2;
MPASM 5.81  /HOME/CICERO/DRIVE/DOCUMENTS/COD   1-18-2019  18:26:13         PAGE 10


LOC  OBJECT CODE     LINE SOURCE TEXT
  VALUE

  0000                    M     local lloop2
000204 2A46               M     incf space2
000206                    M lloop2:
000206 2E46               M     decfsz space2
000208 D???               M     bra lloop2
00020A 808C           00268     bsf PIN_SIG_REG,PIN_RED_BIT;188
                      00269     delayf print2;
  0000                    M     local lloop2
00020C 2A47               M     incf print2
00020E                    M lloop2:
00020E 2E47               M     decfsz print2
000210 D???               M     bra lloop2
000212 908C           00270     bcf PIN_SIG_REG,PIN_RED_BIT;189
                      00271     delayf space3;
  0000                    M     local lloop2
000214 2A48               M     incf space3
000216                    M lloop2:
000216 2E48               M     decfsz space3
000218 D???               M     bra lloop2
00021A 0000           00272     nop
                      00273     delay d'1';399~401
  0000                    M     local lloop1
00021C 0E01               M     movlw d'1'
00021E                    M lloop1:
00021E 2EE8               M     decfsz WREG
000220 D???               M     bra lloop1
                      00274     
000222 908A           00275     bcf PIN_SYNC_REG, PIN_HSYNC_BIT;1
                      00276     init_compare;2~14
000224 6A45               M     clrf print1;1
000226 6A44               M     clrf space1;2
000228 6A47               M     clrf print2;3
00022A 6A46               M     clrf space2;4
00022C 6A48               M     clrf space3;5
00022E 0E06               M     movlw ARRAY_SIZE;6
000230 6E42               M     movwf immedJ;7
000232 EE00 F0F0          M     lfsr 0,DATA_TYPE;8~9
000236 EE10 F0E0          M     lfsr 1,DATA_X;10~11
00023A EE20 F0D0          M     lfsr 2,DATA_Y;12~13
00023E 2A49           00277     incf line_count;15
000240 0000           00278     nop
                      00279     delay   d'17';16~48
  0000                    M     local lloop1
000242 0E11               M     movlw d'17'
000244                    M lloop1:
000244 2EE8               M     decfsz WREG
000246 D???               M     bra lloop1
000248 808A           00280     bsf PIN_SYNC_REG, PIN_HSYNC_BIT;49
                      00281     compare;50~185
  0000                    M     local lloop3
  0000                    M     local lelse1
  0000                    M     local lendif1
  0000                    M     local lelse2
MPASM 5.81  /HOME/CICERO/DRIVE/DOCUMENTS/COD   1-18-2019  18:26:13         PAGE 11


LOC  OBJECT CODE     LINE SOURCE TEXT
  VALUE

  0000                    M     local lendif2
00024A                    M lloop3:
00024A 5049               M     movf line_count,0;1
00024C 5CDE               M     subwf POSTINC2,0;2
00024E 6450               M     cpfsgt ten;3
000250 D???               M         bra lelse1;4~5
000252 50EE               M     movf POSTINC0,0;5
000254 0D14               M     mullw 0x14;6
000256 0F0A               M     addlw 0x0a;7
000258 6645               M     tstfsz print1;8
00025A D???               M         bra lelse2;9~10
00025C 6E45               M     movwf print1;10
00025E CFE6 F044          M     movff POSTINC1,space1;11~12
                          M     delay d'1';13~15
  0000                    M     local lloop1
000262 0E01               M     movlw d'1'
000264                    M lloop1:
000264 2EE8               M     decfsz WREG
000266 D???               M     bra lloop1
000268 D???               M     bra lendif2;16~17
00026A                    M lelse2:
00026A 6E47               M     movwf print2;11
00026C CFE6 F046          M     movff POSTINC1,space2;12~13
000270 5044               M     movf space1,0;14
000272 2445               M     addwf print1,0;15
000274 6046               M     cpfslt space2;16
000276 5E46               M         subwf space2;17
000278                    M lendif2:
000278 D???               M     bra lendif1;18~19
00027A                    M lelse1:
00027A 0000               M     nop;6
                          M     delay d'4';7~18
  0000                    M     local lloop1
00027C 0E04               M     movlw d'4'
00027E                    M lloop1:
00027E 2EE8               M     decfsz WREG
000280 D???               M     bra lloop1
000282 0000               M     nop;19
000284                    M lendif1:
000284 2E42               M     decfsz immedJ;20;42;64;86;108;130
000286 D???               M     bra lloop3;21~22
000288 5044               M     movf space1,0;132
00028A 2445               M     addwf print1,0;133
00028C 2446               M     addwf space2,0;134
00028E 2447               M     addwf print2,0;135
000290 0871               M     sublw d'113';136
000292 6E48               M     movwf space3;137
                      00282     delayf space1;
  0000                    M     local lloop2
000294 2A44               M     incf space1
000296                    M lloop2:
000296 2E44               M     decfsz space1
000298 D???               M     bra lloop2
MPASM 5.81  /HOME/CICERO/DRIVE/DOCUMENTS/COD   1-18-2019  18:26:13         PAGE 12


LOC  OBJECT CODE     LINE SOURCE TEXT
  VALUE

00029A 808C           00283     bsf PIN_SIG_REG,PIN_RED_BIT;186
                      00284     delayf print1;
  0000                    M     local lloop2
00029C 2A45               M     incf print1
00029E                    M lloop2:
00029E 2E45               M     decfsz print1
0002A0 D???               M     bra lloop2
0002A2 908C           00285     bcf PIN_SIG_REG,PIN_RED_BIT;187
                      00286     delayf space2;
  0000                    M     local lloop2
0002A4 2A46               M     incf space2
0002A6                    M lloop2:
0002A6 2E46               M     decfsz space2
0002A8 D???               M     bra lloop2
0002AA 808C           00287     bsf PIN_SIG_REG,PIN_RED_BIT;188
                      00288     delayf print2;
  0000                    M     local lloop2
0002AC 2A47               M     incf print2
0002AE                    M lloop2:
0002AE 2E47               M     decfsz print2
0002B0 D???               M     bra lloop2
0002B2 908C           00289     bcf PIN_SIG_REG,PIN_RED_BIT;189
                      00290     delayf space3;
  0000                    M     local lloop2
0002B4 2A48               M     incf space3
0002B6                    M lloop2:
0002B6 2E48               M     decfsz space3
0002B8 D???               M     bra lloop2
0002BA 0000           00291     nop
0002BC 2E41           00292     decfsz  immedI;399
0002BE D???           00293     bra loop1;400~401
                      00294     
0002C0 6A8A           00295     clrf    PIN_SYNC_REG;1
                      00296     delay   d'21';2~46
  0000                    M     local lloop1
0002C2 0E15               M     movlw d'21'
0002C4                    M lloop1:
0002C4 2EE8               M     decfsz WREG
0002C6 D???               M     bra lloop1
0002C8 6A49           00297     clrf line_count;47
0002CA 0000           00298     nop;48
0002CC 0000           00299     nop
0002CE 808A           00300     bsf PIN_SYNC_REG, PIN_HSYNC_BIT;49
                      00301     delay   d'165';50~400
  0000                    M     local lloop1
0002D0 0EA5               M     movlw d'165'
0002D2                    M lloop1:
0002D2 2EE8               M     decfsz WREG
0002D4 D???               M     bra lloop1
                      00302     ;may interrupt here
0002D6 0000           00303     nop
0002D8 0000           00304     nop
0002DA D???           00305     bra all;401
MPASM 5.81  /HOME/CICERO/DRIVE/DOCUMENTS/COD   1-18-2019  18:26:13         PAGE 13


LOC  OBJECT CODE     LINE SOURCE TEXT
  VALUE

                      00306     
                      00307     end
MPASM 5.81  /HOME/CICERO/DRIVE/DOCUMENTS/COD   1-18-2019  18:26:13         PAGE 14


SYMBOL TABLE
  LABEL                             VALUE 

A                                 00000000
ABDEN                             00000000
ABDOVF                            00000007
ACCESS                            00000000
ACKDT                             00000005
ACKEN                             00000004
ACKSTAT                           00000006
ACQT0                             00000003
ACQT1                             00000004
ACQT2                             00000005
ADCON0                            00000FC2
ADCON1                            00000FC1
ADCON2                            00000FC0
ADCS0                             00000000
ADCS1                             00000001
ADCS2                             00000002
ADDEN                             00000003
ADEN                              00000003
ADFM                              00000007
ADIE                              00000006
ADIF                              00000006
ADIP                              00000006
ADMSK1                            00000001
ADMSK2                            00000002
ADMSK3                            00000003
ADMSK4                            00000004
ADMSK5                            00000005
ADON                              00000000
ADRES                             00000FC3
ADRESH                            00000FC4
ADRESL                            00000FC3
AN0                               00000000
AN1                               00000001
AN10                              00000001
AN11                              00000004
AN12                              00000000
AN2                               00000002
AN3                               00000003
AN4                               00000005
AN5                               00000000
AN6                               00000001
AN7                               00000002
AN8                               00000002
AN9                               00000003
ARRAY_SIZE                        00000006
BANKED                            00000001
BAUDCON                           00000FB8
BAUDCTL                           00000FB8
BCLIE                             00000003
BCLIF                             00000003
BCLIP                             00000003
BF                                00000000
BGST                              00000005
MPASM 5.81  /HOME/CICERO/DRIVE/DOCUMENTS/COD   1-18-2019  18:26:13         PAGE 15


SYMBOL TABLE
  LABEL                             VALUE 

BOR                               00000000
BRG16                             00000003
BRGH                              00000002
BSR                               00000FE0
C                                 00000000
C1INV                             00000004
C1OUT_CMCON                       00000006
C1OUT_PORTA                       00000004
C2INV                             00000005
C2OUT_CMCON                       00000007
C2OUT_PORTA                       00000005
CCP1                              00000002
CCP1CON                           00000FBD
CCP1IE                            00000002
CCP1IF                            00000002
CCP1IP                            00000002
CCP1M0                            00000000
CCP1M1                            00000001
CCP1M2                            00000002
CCP1M3                            00000003
CCP1X                             00000005
CCP1Y                             00000004
CCP2CON                           00000FBA
CCP2IE                            00000000
CCP2IF                            00000000
CCP2IP                            00000000
CCP2M0                            00000000
CCP2M1                            00000001
CCP2M2                            00000002
CCP2M3                            00000003
CCP2X                             00000005
CCP2Y                             00000004
CCP2_PORTB                        00000003
CCP2_PORTC                        00000001
CCPR1                             00000FBE
CCPR1H                            00000FBF
CCPR1L                            00000FBE
CCPR2                             00000FBB
CCPR2H                            00000FBC
CCPR2L                            00000FBB
CFGS                              00000006
CHS0                              00000002
CHS1                              00000003
CHS2                              00000004
CHS3                              00000005
CIS                               00000003
CK                                00000006
CKE                               00000006
CKP                               00000004
CLKI                              00000007
CLKO                              00000006
CM0                               00000000
CM1                               00000001
MPASM 5.81  /HOME/CICERO/DRIVE/DOCUMENTS/COD   1-18-2019  18:26:13         PAGE 16


SYMBOL TABLE
  LABEL                             VALUE 

CM2                               00000002
CMCON                             00000FB4
CMIE                              00000006
CMIF                              00000006
CMIP                              00000006
CREN                              00000004
CS                                00000002
CSRC                              00000007
CVR0                              00000000
CVR1                              00000001
CVR2                              00000002
CVR3                              00000003
CVRCON                            00000FB5
CVREF                             00000002
CVREN                             00000007
CVROE                             00000006
CVRR                              00000005
CVRSS                             00000004
D                                 00000005
DATA_TYPE                         000000F0
DATA_X                            000000E0
DATA_Y                            000000D0
DC                                00000001
DC1B0                             00000004
DC1B1                             00000005
DC2B0                             00000004
DC2B1                             00000005
DDRA                              TRISA
DDRB                              TRISB
DDRC                              TRISC
DDRD                              TRISD
DDRE                              TRISE
DONE                              00000001
D_A                               00000005
D_NOT_A                           00000005
ECCP1AS                           00000FB6
ECCP1DEL                          00000FB7
ECCPAS                            00000FB6
ECCPAS0                           00000004
ECCPAS1                           00000005
ECCPAS2                           00000006
ECCPASE                           00000007
EEADR                             00000FA9
EECON1                            00000FA6
EECON2                            00000FA7
EEDATA                            00000FA8
EEIE                              00000004
EEIF                              00000004
EEIP                              00000004
EEPGD                             00000007
ENUM_LIMIT                        000000F0
ENUM_TYPE                         000000FF
ENUM_X                            000000FE
MPASM 5.81  /HOME/CICERO/DRIVE/DOCUMENTS/COD   1-18-2019  18:26:13         PAGE 17


SYMBOL TABLE
  LABEL                             VALUE 

ENUM_Y                            000000FD
FAST                              00000001
FERR                              00000002
FLT0                              00000000
FLTS                              00000002
FREE                              00000004
FSR0                              00000000
FSR0H                             00000FEA
FSR0L                             00000FE9
FSR1                              00000001
FSR1H                             00000FE2
FSR1L                             00000FE1
FSR2                              00000002
FSR2H                             00000FDA
FSR2L                             00000FD9
GCEN                              00000007
GIE                               00000007
GIEH                              00000007
GIEL                              00000006
GIE_GIEH                          00000007
GO                                00000001
GO_DONE                           00000001
GO_NOT_DONE                       00000001
HLVDCON                           00000FD2
HLVDEN                            00000004
HLVDIE                            00000002
HLVDIF                            00000002
HLVDIN                            00000005
HLVDIP                            00000002
HLVDL0                            00000000
HLVDL1                            00000001
HLVDL2                            00000002
HLVDL3                            00000003
IBF                               00000007
IBOV                              00000005
IDLEN                             00000007
INDF0                             00000FEF
INDF1                             00000FE7
INDF2                             00000FDF
INT0                              00000000
INT0E                             00000004
INT0F                             00000001
INT0IE                            00000004
INT0IF                            00000001
INT1                              00000001
INT1E                             00000003
INT1F                             00000000
INT1IE                            00000003
INT1IF                            00000000
INT1IP                            00000006
INT1P                             00000006
INT2                              00000002
INT2E                             00000004
MPASM 5.81  /HOME/CICERO/DRIVE/DOCUMENTS/COD   1-18-2019  18:26:13         PAGE 18


SYMBOL TABLE
  LABEL                             VALUE 

INT2F                             00000001
INT2IE                            00000004
INT2IF                            00000001
INT2IP                            00000007
INT2P                             00000007
INTCON                            00000FF2
INTCON2                           00000FF1
INTCON3                           00000FF0
INTEDG0                           00000006
INTEDG1                           00000005
INTEDG2                           00000004
INTSRC                            00000007
IOFS                              00000002
IPEN                              00000007
IPR1                              00000F9F
IPR2                              00000FA2
IRCF0                             00000004
IRCF1                             00000005
IRCF2                             00000006
IRVST                             00000005
IVRST                             00000005
Initial                           0000004E
KBI0                              00000004
KBI1                              00000005
KBI2                              00000006
KBI3                              00000007
LATA                              00000F89
LATA0                             00000000
LATA1                             00000001
LATA2                             00000002
LATA3                             00000003
LATA4                             00000004
LATA5                             00000005
LATA6                             00000006
LATA7                             00000007
LATB                              00000F8A
LATB0                             00000000
LATB1                             00000001
LATB2                             00000002
LATB3                             00000003
LATB4                             00000004
LATB5                             00000005
LATB6                             00000006
LATB7                             00000007
LATC                              00000F8B
LATC0                             00000000
LATC1                             00000001
LATC2                             00000002
LATC3                             00000003
LATC4                             00000004
LATC5                             00000005
LATC6                             00000006
LATC7                             00000007
MPASM 5.81  /HOME/CICERO/DRIVE/DOCUMENTS/COD   1-18-2019  18:26:13         PAGE 19


SYMBOL TABLE
  LABEL                             VALUE 

LATD                              00000F8C
LATD0                             00000000
LATD1                             00000001
LATD2                             00000002
LATD3                             00000003
LATD4                             00000004
LATD5                             00000005
LATD6                             00000006
LATD7                             00000007
LATE                              00000F8D
LATE0                             00000000
LATE1                             00000001
LATE2                             00000002
LVDCON                            00000FD2
LVDEN                             00000004
LVDIE                             00000002
LVDIF                             00000002
LVDIN                             00000005
LVDIP                             00000002
LVDL0                             00000000
LVDL1                             00000001
LVDL2                             00000002
LVDL3                             00000003
LVV0                              00000000
LVV1                              00000001
LVV2                              00000002
LVV3                              00000003
MCLR                              00000003
N                                 00000004
NOT_A                             00000005
NOT_ADDRESS                       00000005
NOT_BOR                           00000000
NOT_CS                            00000002
NOT_DONE                          00000001
NOT_MCLR                          00000003
NOT_PD                            00000002
NOT_POR                           00000001
NOT_RBPU                          00000007
NOT_RD                            00000000
NOT_RI                            00000004
NOT_SS                            00000005
NOT_T1SYNC                        00000002
NOT_T3SYNC                        00000002
NOT_TO                            00000003
NOT_W                             00000002
NOT_WR                            00000001
NOT_WRITE                         00000002
OBF                               00000006
OERR                              00000001
OSC1                              00000007
OSC2                              00000006
OSCCON                            00000FD3
OSCFIE                            00000007
MPASM 5.81  /HOME/CICERO/DRIVE/DOCUMENTS/COD   1-18-2019  18:26:13         PAGE 20


SYMBOL TABLE
  LABEL                             VALUE 

OSCFIF                            00000007
OSCFIP                            00000007
OSCTUNE                           00000F9B
OSTS                              00000003
OV                                00000003
P                                 00000004
P1A                               00000002
P1B                               00000005
P1C                               00000006
P1D                               00000007
P1M0                              00000006
P1M1                              00000007
PC                                00000FF9
PCFG0                             00000000
PCFG1                             00000001
PCFG2                             00000002
PCFG3                             00000003
PCL                               00000FF9
PCLATH                            00000FFA
PCLATU                            00000FFB
PD                                00000002
PDC0                              00000000
PDC1                              00000001
PDC2                              00000002
PDC3                              00000003
PDC4                              00000004
PDC5                              00000005
PDC6                              00000006
PEIE                              00000006
PEIE_GIEL                         00000006
PEN                               00000002
PGC                               00000006
PGD                               00000007
PGM                               00000005
PIE1                              00000F9D
PIE2                              00000FA0
PIN_BLUE_BIT                      00000002
PIN_GREEN_BIT                     00000001
PIN_HSYNC_BIT                     00000000
PIN_RED_BIT                       00000000
PIN_SIG_REG                       00000F8C
PIN_SIG_TRIS                      00000F95
PIN_SYNC_REG                      00000F8A
PIN_SYNC_TRIS                     00000F93
PIN_VSYNC_BIT                     00000001
PIR1                              00000F9E
PIR2                              00000FA1
PLLEN                             00000006
PLUSW0                            00000FEB
PLUSW1                            00000FE3
PLUSW2                            00000FDB
POR                               00000001
PORTA                             00000F80
MPASM 5.81  /HOME/CICERO/DRIVE/DOCUMENTS/COD   1-18-2019  18:26:13         PAGE 21


SYMBOL TABLE
  LABEL                             VALUE 

PORTB                             00000F81
PORTC                             00000F82
PORTD                             00000F83
PORTE                             00000F84
POSTDEC0                          00000FED
POSTDEC1                          00000FE5
POSTDEC2                          00000FDD
POSTINC0                          00000FEE
POSTINC1                          00000FE6
POSTINC2                          00000FDE
PR2                               00000FCB
PREINC0                           00000FEC
PREINC1                           00000FE4
PREINC2                           00000FDC
PROD                              00000FF3
PRODH                             00000FF4
PRODL                             00000FF3
PRSEN                             00000007
PSA                               00000003
PSP0                              00000000
PSP1                              00000001
PSP2                              00000002
PSP3                              00000003
PSP4                              00000004
PSP5                              00000005
PSP6                              00000006
PSP7                              00000007
PSPIE                             00000007
PSPIF                             00000007
PSPIP                             00000007
PSPMODE                           00000004
PSSAC0                            00000002
PSSAC1                            00000003
PSSBD0                            00000000
PSSBD1                            00000001
PWM1CON                           00000FB7
R                                 00000002
RA0                               00000000
RA1                               00000001
RA2                               00000002
RA3                               00000003
RA4                               00000004
RA5                               00000005
RA6                               00000006
RA7                               00000007
RB0                               00000000
RB1                               00000001
RB2                               00000002
RB3                               00000003
RB4                               00000004
RB5                               00000005
RB6                               00000006
RB7                               00000007
MPASM 5.81  /HOME/CICERO/DRIVE/DOCUMENTS/COD   1-18-2019  18:26:13         PAGE 22


SYMBOL TABLE
  LABEL                             VALUE 

RBIE                              00000003
RBIF                              00000000
RBIP                              00000000
RBPU                              00000007
RC0                               00000000
RC1                               00000001
RC2                               00000002
RC3                               00000003
RC4                               00000004
RC5                               00000005
RC6                               00000006
RC7                               00000007
RCEN                              00000003
RCIDL                             00000006
RCIE                              00000005
RCIF                              00000005
RCIP                              00000005
RCMT                              00000006
RCON                              00000FD0
RCREG                             00000FAE
RCSTA                             00000FAB
RD                                00000000
RD0                               00000000
RD1                               00000001
RD16                              00000007
RD2                               00000002
RD3                               00000003
RD4                               00000004
RD5                               00000005
RD6                               00000006
RD7                               00000007
RE0                               00000000
RE1                               00000001
RE2                               00000002
RE3                               00000003
RI                                00000004
RSEN                              00000001
RX                                00000007
RX9                               00000006
RX9D                              00000000
RXDTP                             00000005
R_NOT_W                           00000002
R_W                               00000002
S                                 00000003
SBOREN                            00000006
SCK                               00000003
SCKP                              00000004
SCL                               00000003
SCS0                              00000000
SCS1                              00000001
SDA                               00000004
SDI                               00000004
SDO                               00000005
MPASM 5.81  /HOME/CICERO/DRIVE/DOCUMENTS/COD   1-18-2019  18:26:13         PAGE 23


SYMBOL TABLE
  LABEL                             VALUE 

SEN                               00000000
SENDB                             00000003
SMP                               00000007
SP0                               00000000
SP1                               00000001
SP2                               00000002
SP3                               00000003
SP4                               00000004
SPBRG                             00000FAF
SPBRGH                            00000FB0
SPEN                              00000007
SREN                              00000005
SS                                00000005
SSPADD                            00000FC8
SSPBUF                            00000FC9
SSPCON1                           00000FC6
SSPCON2                           00000FC5
SSPEN                             00000005
SSPIE                             00000003
SSPIF                             00000003
SSPIP                             00000003
SSPM0                             00000000
SSPM1                             00000001
SSPM2                             00000002
SSPM3                             00000003
SSPOV                             00000006
SSPSTAT                           00000FC7
STATUS                            00000FD8
STKFUL                            00000007
STKOVF                            00000007
STKPTR                            00000FFC
STKUNF                            00000006
SWDTE                             00000000
SWDTEN                            00000000
SYNC                              00000004
T016BIT                           00000006
T08BIT                            00000006
T0CKI                             00000004
T0CON                             00000FD5
T0CS                              00000005
T0IE                              00000005
T0IF                              00000002
T0PS0                             00000000
T0PS1                             00000001
T0PS2                             00000002
T0PS3                             00000003
T0SE                              00000004
T13CKI                            00000000
T1CKI                             00000000
T1CKPS0                           00000004
T1CKPS1                           00000005
T1CON                             00000FCD
T1OSCEN                           00000003
MPASM 5.81  /HOME/CICERO/DRIVE/DOCUMENTS/COD   1-18-2019  18:26:13         PAGE 24


SYMBOL TABLE
  LABEL                             VALUE 

T1OSI                             00000001
T1OSO                             00000000
T1RUN                             00000006
T1SYNC                            00000002
T2CKPS0                           00000000
T2CKPS1                           00000001
T2CON                             00000FCA
T2OUTPS0                          00000003
T2OUTPS1                          00000004
T2OUTPS2                          00000005
T2OUTPS3                          00000006
T3CCP1                            00000003
T3CCP2                            00000006
T3CKPS0                           00000004
T3CKPS1                           00000005
T3CON                             00000FB1
T3SYNC                            00000002
TABLAT                            00000FF5
TBLPTR                            00000FF6
TBLPTRH                           00000FF7
TBLPTRL                           00000FF6
TBLPTRU                           00000FF8
TMR0                              00000FD6
TMR0H                             00000FD7
TMR0IE                            00000005
TMR0IF                            00000002
TMR0IP                            00000002
TMR0L                             00000FD6
TMR0ON                            00000007
TMR1                              00000FCE
TMR1CS                            00000001
TMR1H                             00000FCF
TMR1IE                            00000000
TMR1IF                            00000000
TMR1IP                            00000000
TMR1L                             00000FCE
TMR1ON                            00000000
TMR2                              00000FCC
TMR2IE                            00000001
TMR2IF                            00000001
TMR2IP                            00000001
TMR2ON                            00000002
TMR3                              00000FB2
TMR3CS                            00000001
TMR3H                             00000FB3
TMR3IE                            00000001
TMR3IF                            00000001
TMR3IP                            00000001
TMR3L                             00000FB2
TMR3ON                            00000000
TO                                00000003
TOS                               00000FFD
TOSH                              00000FFE
MPASM 5.81  /HOME/CICERO/DRIVE/DOCUMENTS/COD   1-18-2019  18:26:13         PAGE 25


SYMBOL TABLE
  LABEL                             VALUE 

TOSL                              00000FFD
TOSU                              00000FFF
TOUTPS0                           00000003
TOUTPS1                           00000004
TOUTPS2                           00000005
TOUTPS3                           00000006
TRISA                             00000F92
TRISA0                            00000000
TRISA1                            00000001
TRISA2                            00000002
TRISA3                            00000003
TRISA4                            00000004
TRISA5                            00000005
TRISA6                            00000006
TRISA7                            00000007
TRISB                             00000F93
TRISB0                            00000000
TRISB1                            00000001
TRISB2                            00000002
TRISB3                            00000003
TRISB4                            00000004
TRISB5                            00000005
TRISB6                            00000006
TRISB7                            00000007
TRISC                             00000F94
TRISC0                            00000000
TRISC1                            00000001
TRISC2                            00000002
TRISC3                            00000003
TRISC4                            00000004
TRISC5                            00000005
TRISC6                            00000006
TRISC7                            00000007
TRISD                             00000F95
TRISD0                            00000000
TRISD1                            00000001
TRISD2                            00000002
TRISD3                            00000003
TRISD4                            00000004
TRISD5                            00000005
TRISD6                            00000006
TRISD7                            00000007
TRISE                             00000F96
TRISE0                            00000000
TRISE1                            00000001
TRISE2                            00000002
TRMT                              00000001
TUN0                              00000000
TUN1                              00000001
TUN2                              00000002
TUN3                              00000003
TUN4                              00000004
TX                                00000006
MPASM 5.81  /HOME/CICERO/DRIVE/DOCUMENTS/COD   1-18-2019  18:26:13         PAGE 26


SYMBOL TABLE
  LABEL                             VALUE 

TX9                               00000006
TX9D                              00000000
TXCKP                             00000004
TXEN                              00000005
TXIE                              00000004
TXIF                              00000004
TXIP                              00000004
TXREG                             00000FAD
TXSTA                             00000FAC
UA                                00000001
UART                              0000001E
UART_datatype                     00000044
UART_read                         00000032
UART_wait                         0000002C
VCFG0                             00000004
VCFG1                             00000005
VDIRMAG                           00000007
VPP                               00000003
VREFN                             00000002
VREFP                             00000003
W                                 00000000
WCOL                              00000007
WDTCON                            00000FD1
WR                                00000001
WREG                              00000FE8
WREN                              00000002
WRERR                             00000003
WUE                               00000001
Z                                 00000002
_BOREN_NOSLP_2L                   000000FD
_BOREN_OFF_2L                     000000F9
_BOREN_ON_2L                      000000FB
_BOREN_SBORDIS_2L                 000000FF
_BORV_0_2L                        000000E7
_BORV_1_2L                        000000EF
_BORV_2_2L                        000000F7
_BORV_3_2L                        000000FF
_CCP2MX_PORTBE_3H                 000000FE
_CCP2MX_PORTC_3H                  000000FF
_CONFIG1H                         00300001
_CONFIG2H                         00300003
_CONFIG2L                         00300002
_CONFIG3H                         00300005
_CONFIG4L                         00300006
_CONFIG5H                         00300009
_CONFIG5L                         00300008
_CONFIG6H                         0030000B
_CONFIG6L                         0030000A
_CONFIG7H                         0030000D
_CONFIG7L                         0030000C
_CP0_OFF_5L                       000000FF
_CP0_ON_5L                        000000FE
_CP1_OFF_5L                       000000FF
MPASM 5.81  /HOME/CICERO/DRIVE/DOCUMENTS/COD   1-18-2019  18:26:13         PAGE 27


SYMBOL TABLE
  LABEL                             VALUE 

_CP1_ON_5L                        000000FD
_CP2_OFF_5L                       000000FF
_CP2_ON_5L                        000000FB
_CP3_OFF_5L                       000000FF
_CP3_ON_5L                        000000F7
_CPB_OFF_5H                       000000FF
_CPB_ON_5H                        000000BF
_CPD_OFF_5H                       000000FF
_CPD_ON_5H                        0000007F
_DEBUG_OFF_4L                     000000FF
_DEBUG_ON_4L                      0000007F
_DEVID1                           003FFFFE
_DEVID2                           003FFFFF
_EBTR0_OFF_7L                     000000FF
_EBTR0_ON_7L                      000000FE
_EBTR1_OFF_7L                     000000FF
_EBTR1_ON_7L                      000000FD
_EBTR2_OFF_7L                     000000FF
_EBTR2_ON_7L                      000000FB
_EBTR3_OFF_7L                     000000FF
_EBTR3_ON_7L                      000000F7
_EBTRB_OFF_7H                     000000FF
_EBTRB_ON_7H                      000000BF
_FCMEN_OFF_1H                     000000BF
_FCMEN_ON_1H                      000000FF
_IDLOC0                           00200000
_IDLOC1                           00200001
_IDLOC2                           00200002
_IDLOC3                           00200003
_IDLOC4                           00200004
_IDLOC5                           00200005
_IDLOC6                           00200006
_IDLOC7                           00200007
_IESO_OFF_1H                      0000007F
_IESO_ON_1H                       000000FF
_LPT1OSC_OFF_3H                   000000FB
_LPT1OSC_ON_3H                    000000FF
_LVP_OFF_4L                       000000FB
_LVP_ON_4L                        000000FF
_MCLRE_OFF_3H                     0000007F
_MCLRE_ON_3H                      000000FF
_OSC_ECIO6_1H                     000000F5
_OSC_EC_1H                        000000F4
_OSC_HSPLL_1H                     000000F6
_OSC_HS_1H                        000000F2
_OSC_INTIO67_1H                   000000F8
_OSC_INTIO7_1H                    000000F9
_OSC_LP_1H                        000000F0
_OSC_RCIO6_1H                     000000F7
_OSC_RC_1H                        000000F3
_OSC_XT_1H                        000000F1
_PBADEN_OFF_3H                    000000FD
_PBADEN_ON_3H                     000000FF
MPASM 5.81  /HOME/CICERO/DRIVE/DOCUMENTS/COD   1-18-2019  18:26:13         PAGE 28


SYMBOL TABLE
  LABEL                             VALUE 

_PWRT_OFF_2L                      000000FF
_PWRT_ON_2L                       000000FE
_STVREN_OFF_4L                    000000FE
_STVREN_ON_4L                     000000FF
_WDTPS_1024_2H                    000000F5
_WDTPS_128_2H                     000000EF
_WDTPS_16384_2H                   000000FD
_WDTPS_16_2H                      000000E9
_WDTPS_1_2H                       000000E1
_WDTPS_2048_2H                    000000F7
_WDTPS_256_2H                     000000F1
_WDTPS_2_2H                       000000E3
_WDTPS_32768_2H                   000000FF
_WDTPS_32_2H                      000000EB
_WDTPS_4096_2H                    000000F9
_WDTPS_4_2H                       000000E5
_WDTPS_512_2H                     000000F3
_WDTPS_64_2H                      000000ED
_WDTPS_8192_2H                    000000FB
_WDTPS_8_2H                       000000E7
_WDT_OFF_2H                       000000FE
_WDT_ON_2H                        000000FF
_WRT0_OFF_6L                      000000FF
_WRT0_ON_6L                       000000FE
_WRT1_OFF_6L                      000000FF
_WRT1_ON_6L                       000000FD
_WRT2_OFF_6L                      000000FF
_WRT2_ON_6L                       000000FB
_WRT3_OFF_6L                      000000FF
_WRT3_ON_6L                       000000F7
_WRTB_OFF_6H                      000000FF
_WRTB_ON_6H                       000000BF
_WRTC_OFF_6H                      000000FF
_WRTC_ON_6H                       000000DF
_WRTD_OFF_6H                      000000FF
_WRTD_ON_6H                       0000007F
_XINST_OFF_4L                     000000BF
_XINST_ON_4L                      000000FF
__18F4520                         00000001
all                               000000B8
clear_loop                        000000A6
compare                           
delay                             
delayf                            
immedI                            00000041
immedJ                            00000042
immedK                            00000043
init_compare                      
line_count                        00000049
lo_isr                            00000008
loop1                             000000E2
print1                            00000045
print2                            00000047
MPASM 5.81  /HOME/CICERO/DRIVE/DOCUMENTS/COD   1-18-2019  18:26:13         PAGE 29


SYMBOL TABLE
  LABEL                             VALUE 

ptr_recv                          00000040
space1                            00000044
space2                            00000046
space3                            00000048
ten                               00000050

Errors   :     0
Warnings :     0 reported,     0 suppressed
Messages :     0 reported,     0 suppressed

